target datalayout = "e-m:e-p270:32:32-p271:32:32-p272:64:64-i64:64-i128:128-f80:128-n8:16:32:64-S128"
target triple = "x86_64-pc-linux-gnu"

%struct.MvcCubeStruct = type { ptr, i32, i32, [1 x i32] }
%struct.MvcCoverStruct = type { i32, i32, i32, %struct.MvcListStruct, ptr, i32, ptr, ptr, ptr }
%struct.MvcListStruct = type { ptr, ptr, i32 }

; Function Attrs: nounwind uwtable
define void @Mvc_CoverInverse(ptr noundef %0) #0 {
  %2 = alloca ptr, align 8
  %3 = alloca ptr, align 8
  %4 = alloca i32, align 4
  store ptr %0, ptr %2, align 8, !tbaa !3
  call void @llvm.lifetime.start.p0(i64 8, ptr %3) #3
  %5 = load ptr, ptr %2, align 8, !tbaa !3
  %6 = getelementptr inbounds nuw %struct.MvcCoverStruct, ptr %5, i32 0, i32 3
  %7 = getelementptr inbounds nuw %struct.MvcListStruct, ptr %6, i32 0, i32 0
  %8 = load ptr, ptr %7, align 8, !tbaa !14
  store ptr %8, ptr %3, align 8, !tbaa !8
  br label %9

9:                                                ; preds = %92, %1
  %10 = load ptr, ptr %3, align 8, !tbaa !8
  %11 = icmp ne ptr %10, null
  br i1 %11, label %12, label %96

12:                                               ; preds = %9
  %13 = load ptr, ptr %3, align 8, !tbaa !8
  %14 = getelementptr inbounds nuw %struct.MvcCubeStruct, ptr %13, i32 0, i32 1
  %15 = load i32, ptr %14, align 8
  %16 = and i32 %15, 16777215
  %17 = icmp eq i32 %16, 0
  br i1 %17, label %18, label %30

18:                                               ; preds = %12
  %19 = load ptr, ptr %3, align 8, !tbaa !8
  %20 = getelementptr inbounds nuw %struct.MvcCubeStruct, ptr %19, i32 0, i32 1
  %21 = load i32, ptr %20, align 8
  %22 = lshr i32 %21, 24
  %23 = and i32 %22, 63
  %24 = lshr i32 -1, %23
  %25 = load ptr, ptr %3, align 8, !tbaa !8
  %26 = getelementptr inbounds nuw %struct.MvcCubeStruct, ptr %25, i32 0, i32 3
  %27 = getelementptr inbounds [1 x i32], ptr %26, i64 0, i64 0
  %28 = load i32, ptr %27, align 8, !tbaa !10
  %29 = xor i32 %28, %24
  store i32 %29, ptr %27, align 8, !tbaa !10
  br label %91

30:                                               ; preds = %12
  %31 = load ptr, ptr %3, align 8, !tbaa !8
  %32 = getelementptr inbounds nuw %struct.MvcCubeStruct, ptr %31, i32 0, i32 1
  %33 = load i32, ptr %32, align 8
  %34 = and i32 %33, 16777215
  %35 = icmp eq i32 %34, 1
  br i1 %35, label %36, label %53

36:                                               ; preds = %30
  %37 = load ptr, ptr %3, align 8, !tbaa !8
  %38 = getelementptr inbounds nuw %struct.MvcCubeStruct, ptr %37, i32 0, i32 3
  %39 = getelementptr inbounds [1 x i32], ptr %38, i64 0, i64 0
  %40 = load i32, ptr %39, align 8, !tbaa !10
  %41 = xor i32 %40, -1
  store i32 %41, ptr %39, align 8, !tbaa !10
  %42 = load ptr, ptr %3, align 8, !tbaa !8
  %43 = getelementptr inbounds nuw %struct.MvcCubeStruct, ptr %42, i32 0, i32 1
  %44 = load i32, ptr %43, align 8
  %45 = lshr i32 %44, 24
  %46 = and i32 %45, 63
  %47 = lshr i32 -1, %46
  %48 = load ptr, ptr %3, align 8, !tbaa !8
  %49 = getelementptr inbounds nuw %struct.MvcCubeStruct, ptr %48, i32 0, i32 3
  %50 = getelementptr inbounds [1 x i32], ptr %49, i64 0, i64 1
  %51 = load i32, ptr %50, align 4, !tbaa !10
  %52 = xor i32 %51, %47
  store i32 %52, ptr %50, align 4, !tbaa !10
  br label %90

53:                                               ; preds = %30
  call void @llvm.lifetime.start.p0(i64 4, ptr %4) #3
  %54 = load ptr, ptr %3, align 8, !tbaa !8
  %55 = getelementptr inbounds nuw %struct.MvcCubeStruct, ptr %54, i32 0, i32 1
  %56 = load i32, ptr %55, align 8
  %57 = lshr i32 %56, 24
  %58 = and i32 %57, 63
  %59 = lshr i32 -1, %58
  %60 = load ptr, ptr %3, align 8, !tbaa !8
  %61 = getelementptr inbounds nuw %struct.MvcCubeStruct, ptr %60, i32 0, i32 3
  %62 = load ptr, ptr %3, align 8, !tbaa !8
  %63 = getelementptr inbounds nuw %struct.MvcCubeStruct, ptr %62, i32 0, i32 1
  %64 = load i32, ptr %63, align 8
  %65 = and i32 %64, 16777215
  %66 = zext i32 %65 to i64
  %67 = getelementptr inbounds nuw [1 x i32], ptr %61, i64 0, i64 %66
  %68 = load i32, ptr %67, align 4, !tbaa !10
  %69 = xor i32 %68, %59
  store i32 %69, ptr %67, align 4, !tbaa !10
  %70 = load ptr, ptr %3, align 8, !tbaa !8
  %71 = getelementptr inbounds nuw %struct.MvcCubeStruct, ptr %70, i32 0, i32 1
  %72 = load i32, ptr %71, align 8
  %73 = and i32 %72, 16777215
  %74 = sub nsw i32 %73, 1
  store i32 %74, ptr %4, align 4, !tbaa !10
  br label %75

75:                                               ; preds = %86, %53
  %76 = load i32, ptr %4, align 4, !tbaa !10
  %77 = icmp sge i32 %76, 0
  br i1 %77, label %78, label %89

78:                                               ; preds = %75
  %79 = load ptr, ptr %3, align 8, !tbaa !8
  %80 = getelementptr inbounds nuw %struct.MvcCubeStruct, ptr %79, i32 0, i32 3
  %81 = load i32, ptr %4, align 4, !tbaa !10
  %82 = sext i32 %81 to i64
  %83 = getelementptr inbounds [1 x i32], ptr %80, i64 0, i64 %82
  %84 = load i32, ptr %83, align 4, !tbaa !10
  %85 = xor i32 %84, -1
  store i32 %85, ptr %83, align 4, !tbaa !10
  br label %86

86:                                               ; preds = %78
  %87 = load i32, ptr %4, align 4, !tbaa !10
  %88 = add nsw i32 %87, -1
  store i32 %88, ptr %4, align 4, !tbaa !10
  br label %75, !llvm.loop !59

89:                                               ; preds = %75
  call void @llvm.lifetime.end.p0(i64 4, ptr %4) #3
  br label %90

90:                                               ; preds = %89, %36
  br label %91

91:                                               ; preds = %90, %18
  br label %92

92:                                               ; preds = %91
  %93 = load ptr, ptr %3, align 8, !tbaa !8
  %94 = getelementptr inbounds nuw %struct.MvcCubeStruct, ptr %93, i32 0, i32 0
  %95 = load ptr, ptr %94, align 8, !tbaa !21
  store ptr %95, ptr %3, align 8, !tbaa !8
  br label %9, !llvm.loop !60

96:                                               ; preds = %9
  call void @llvm.lifetime.end.p0(i64 8, ptr %3) #3
  ret void
}