; Function Attrs: nofree norecurse nosync nounwind memory(readwrite, inaccessiblemem: none) uwtable
define void @Mvc_CoverInverse(ptr noundef readonly captures(none) %0) local_unnamed_addr #3 {
  %2 = getelementptr inbounds nuw i8, ptr %0, i64 16
  %.01720 = load ptr, ptr %2, align 8, !tbaa !7
  %.not21 = icmp eq ptr %.01720, null
  br i1 %.not21, label %._crit_edge, label %.lr.ph23

.lr.ph23:                                         ; preds = %1, %.loopexit
  %.01722 = phi ptr [ %.017, %.loopexit ], [ %.01720, %1 ]
  %3 = getelementptr inbounds nuw i8, ptr %.01722, i64 8
  %4 = load i32, ptr %3, align 8
  %5 = and i32 %4, 16777215
  switch i32 %5, label %.lr.ph.preheader [
    i32 0, label %6
    i32 1, label %13
  ]

6:                                                ; preds = %.lr.ph23
  %7 = lshr exact i32 %4, 24
  %8 = and i32 %7, 63
  %9 = lshr i32 -1, %8
  %10 = getelementptr inbounds nuw i8, ptr %.01722, i64 16
  %11 = load i32, ptr %10, align 8, !tbaa !3
  %12 = xor i32 %11, %9
  store i32 %12, ptr %10, align 8, !tbaa !3
  br label %.loopexit

13:                                               ; preds = %.lr.ph23
  %14 = getelementptr inbounds nuw i8, ptr %.01722, i64 16
  %15 = load i32, ptr %14, align 8, !tbaa !3
  %16 = xor i32 %15, -1
  store i32 %16, ptr %14, align 8, !tbaa !3
  %17 = lshr i32 %4, 24
  %18 = and i32 %17, 63
  %19 = lshr i32 -1, %18
  %20 = getelementptr inbounds nuw i8, ptr %.01722, i64 20
  %21 = load i32, ptr %20, align 4, !tbaa !3
  %22 = xor i32 %21, %19
  store i32 %22, ptr %20, align 4, !tbaa !3
  br label %.loopexit

.lr.ph.preheader:                                 ; preds = %.lr.ph23
  %23 = lshr i32 %4, 24
  %24 = and i32 %23, 63
  %25 = lshr i32 -1, %24
  %26 = getelementptr inbounds nuw i8, ptr %.01722, i64 16
  %27 = zext nneg i32 %5 to i64
  %28 = getelementptr inbounds nuw [1 x i32], ptr %26, i64 0, i64 %27
  %29 = load i32, ptr %28, align 4, !tbaa !3
  %30 = xor i32 %29, %25
  store i32 %30, ptr %28, align 4, !tbaa !3
  %31 = and i32 %4, 16777215
  %32 = zext nneg i32 %31 to i64
  br label %.lr.ph

.lr.ph:                                           ; preds = %.lr.ph.preheader, %.lr.ph
  %indvars.iv = phi i64 [ %32, %.lr.ph.preheader ], [ %indvars.iv.next, %.lr.ph ]
  %indvars.iv.next = add nsw i64 %indvars.iv, -1
  %33 = getelementptr inbounds nuw [1 x i32], ptr %26, i64 0, i64 %indvars.iv.next
  %34 = load i32, ptr %33, align 4, !tbaa !3
  %35 = xor i32 %34, -1
  store i32 %35, ptr %33, align 4, !tbaa !3
  %36 = icmp samesign ugt i64 %indvars.iv, 1
  br i1 %36, label %.lr.ph, label %.loopexit, !llvm.loop !47

.loopexit:                                        ; preds = %.lr.ph, %6, %13
  %.017 = load ptr, ptr %.01722, align 8, !tbaa !7
  %.not = icmp eq ptr %.017, null
  br i1 %.not, label %._crit_edge, label %.lr.ph23, !llvm.loop !48

._crit_edge:                                      ; preds = %.loopexit, %1
  ret void
}